target datalayout = "e-m:e-p270:32:32-p271:32:32-p272:64:64-i64:64-i128:128-f80:128-n8:16:32:64-S128"
target triple = "x86_64-pc-linux-gnu"

%struct.Gia_Obj_t_ = type <{ i64, i32 }>

; Function Attrs: nounwind uwtable
define internal ptr @Gia_ObjFanin1(ptr noundef %0) #0 {
  %2 = alloca ptr, align 8
  store ptr %0, ptr %2, align 8
  %3 = load ptr, ptr %2, align 8
  %4 = load ptr, ptr %2, align 8
  %5 = load i64, ptr %4, align 4
  %6 = lshr i64 %5, 32
  %7 = and i64 %6, 536870911
  %8 = trunc i64 %7 to i32
  %9 = sext i32 %8 to i64
  %10 = sub i64 0, %9
  %11 = getelementptr inbounds %struct.Gia_Obj_t_, ptr %3, i64 %10
  ret ptr %11
}

; Function Attrs: nounwind uwtable
define internal ptr @Gia_ObjFanin0(ptr noundef %0) #0 {
  %2 = alloca ptr, align 8
  store ptr %0, ptr %2, align 8
  %3 = load ptr, ptr %2, align 8
  %4 = load ptr, ptr %2, align 8
  %5 = load i64, ptr %4, align 4
  %6 = and i64 %5, 536870911
  %7 = trunc i64 %6 to i32
  %8 = sext i32 %7 to i64
  %9 = sub i64 0, %8
  %10 = getelementptr inbounds %struct.Gia_Obj_t_, ptr %3, i64 %9
  ret ptr %10
}

; Function Attrs: nounwind uwtable
define internal i32 @Gia_ObjIsConst0(ptr noundef %0) #0 {
  %2 = alloca ptr, align 8
  store ptr %0, ptr %2, align 8
  %3 = load ptr, ptr %2, align 8
  %4 = load i64, ptr %3, align 4
  %5 = and i64 %4, 536870911
  %6 = trunc i64 %5 to i32
  %7 = icmp eq i32 %6, 536870911
  br i1 %7, label %8, label %15

8:                                                ; preds = %1
  %9 = load ptr, ptr %2, align 8
  %10 = load i64, ptr %9, align 4
  %11 = lshr i64 %10, 32
  %12 = and i64 %11, 536870911
  %13 = trunc i64 %12 to i32
  %14 = icmp eq i32 %13, 536870911
  br label %15

15:                                               ; preds = %8, %1
  %16 = phi i1 [ false, %1 ], [ %14, %8 ]
  %17 = zext i1 %16 to i32
  ret i32 %17
}

; Function Attrs: nounwind uwtable
define internal i32 @Gia_ObjIsCi(ptr noundef %0) #0 {
  %2 = alloca ptr, align 8
  store ptr %0, ptr %2, align 8
  %3 = load ptr, ptr %2, align 8
  %4 = load i64, ptr %3, align 4
  %5 = lshr i64 %4, 31
  %6 = and i64 %5, 1
  %7 = trunc i64 %6 to i32
  %8 = icmp ne i32 %7, 0
  br i1 %8, label %9, label %15

9:                                                ; preds = %1
  %10 = load ptr, ptr %2, align 8
  %11 = load i64, ptr %10, align 4
  %12 = and i64 %11, 536870911
  %13 = trunc i64 %12 to i32
  %14 = icmp eq i32 %13, 536870911
  br label %15

15:                                               ; preds = %9, %1
  %16 = phi i1 [ false, %1 ], [ %14, %9 ]
  %17 = zext i1 %16 to i32
  ret i32 %17
}

; Function Attrs: nounwind uwtable
define i32 @Cec_ManFraClassesUpdate_rec(ptr noundef %0) #0 {
  %2 = alloca i32, align 4
  %3 = alloca ptr, align 8
  %4 = alloca i32, align 4
  store ptr %0, ptr %3, align 8
  %5 = load ptr, ptr %3, align 8
  %6 = load i64, ptr %5, align 4
  %7 = lshr i64 %6, 30
  %8 = and i64 %7, 1
  %9 = trunc i64 %8 to i32
  %10 = icmp ne i32 %9, 0
  br i1 %10, label %11, label %12

11:                                               ; preds = %1
  store i32 1, ptr %2, align 4
  br label %38

12:                                               ; preds = %1
  %13 = load ptr, ptr %3, align 8
  %14 = call i32 @Gia_ObjIsCi(ptr noundef %13)
  %15 = icmp ne i32 %14, 0
  br i1 %15, label %20, label %16

16:                                               ; preds = %12
  %17 = load ptr, ptr %3, align 8
  %18 = call i32 @Gia_ObjIsConst0(ptr noundef %17)
  %19 = icmp ne i32 %18, 0
  br i1 %19, label %20, label %21

20:                                               ; preds = %16, %12
  store i32 0, ptr %2, align 4
  br label %38

21:                                               ; preds = %16
  %22 = load ptr, ptr %3, align 8
  %23 = call ptr @Gia_ObjFanin0(ptr noundef %22)
  %24 = call i32 @Cec_ManFraClassesUpdate_rec(ptr noundef %23)
  %25 = load ptr, ptr %3, align 8
  %26 = call ptr @Gia_ObjFanin1(ptr noundef %25)
  %27 = call i32 @Cec_ManFraClassesUpdate_rec(ptr noundef %26)
  %28 = or i32 %24, %27
  store i32 %28, ptr %4, align 4
  %29 = load i32, ptr %4, align 4
  %30 = load ptr, ptr %3, align 8
  %31 = zext i32 %29 to i64
  %32 = load i64, ptr %30, align 4
  %33 = and i64 %31, 1
  %34 = shl i64 %33, 30
  %35 = and i64 %32, -1073741825
  %36 = or i64 %35, %34
  store i64 %36, ptr %30, align 4
  %37 = trunc i64 %33 to i32
  store i32 %37, ptr %2, align 4
  br label %38

38:                                               ; preds = %21, %20, %11
  %39 = load i32, ptr %2, align 4
  ret i32 %39
}