; Function Attrs: nofree nosync nounwind memory(argmem: readwrite) uwtable
define range(i32 0, 2) i32 @Cec_ManFraClassesUpdate_rec(ptr noundef %0) local_unnamed_addr #7 {
  %2 = load i64, ptr %0, align 4
  %3 = and i64 %2, 1073741824
  %.not = icmp eq i64 %3, 0
  br i1 %.not, label %4, label %common.ret11

4:                                                ; preds = %1
  %5 = and i64 %2, 2684354559
  %narrow.i.not = icmp eq i64 %5, 2684354559
  %6 = and i64 %2, 2305843005455597567
  %narrow.i10.not = icmp eq i64 %6, 2305843005455597567
  %or.cond = or i1 %narrow.i.not, %narrow.i10.not
  br i1 %or.cond, label %common.ret11, label %7

common.ret11:                                     ; preds = %4, %1, %7
  %common.ret11.op = phi i32 [ %18, %7 ], [ 1, %1 ], [ 0, %4 ]
  ret i32 %common.ret11.op

7:                                                ; preds = %4
  %8 = and i64 %2, 536870911
  %9 = sub nsw i64 0, %8
  %10 = getelementptr inbounds %struct.Gia_Obj_t_, ptr %0, i64 %9
  %11 = tail call i32 @Cec_ManFraClassesUpdate_rec(ptr noundef nonnull %10)
  %12 = load i64, ptr %0, align 4
  %13 = lshr i64 %12, 32
  %14 = and i64 %13, 536870911
  %15 = sub nsw i64 0, %14
  %16 = getelementptr inbounds %struct.Gia_Obj_t_, ptr %0, i64 %15
  %17 = tail call i32 @Cec_ManFraClassesUpdate_rec(ptr noundef nonnull %16)
  %18 = or i32 %17, %11
  %19 = load i64, ptr %0, align 4
  %20 = shl nuw nsw i32 %18, 30
  %21 = zext nneg i32 %20 to i64
  %22 = and i64 %19, -1073741825
  %23 = or disjoint i64 %22, %21
  store i64 %23, ptr %0, align 4
  br label %common.ret11
}